; Function Attrs: mustprogress nounwind uwtable
define hidden void @_ZN10PnPProblemD0Ev(ptr noundef nonnull align 8 dereferenceable(392) %0) unnamed_addr #4 align 2 {
  store ptr getelementptr inbounds inrange(-16, 16) (i8, ptr @_ZTV10PnPProblem, i64 16), ptr %0, align 8
  %2 = getelementptr inbounds i8, ptr %0, i64 296
  tail call void @_ZN2cv3MatD1Ev(ptr noundef nonnull align 8 dereferenceable(96) %2) #18
  %3 = getelementptr inbounds i8, ptr %0, i64 200
  tail call void @_ZN2cv3MatD1Ev(ptr noundef nonnull align 8 dereferenceable(96) %3) #18
  %4 = getelementptr inbounds i8, ptr %0, i64 104
  tail call void @_ZN2cv3MatD1Ev(ptr noundef nonnull align 8 dereferenceable(96) %4) #18
  %5 = getelementptr inbounds i8, ptr %0, i64 8
  tail call void @_ZN2cv3MatD1Ev(ptr noundef nonnull align 8 dereferenceable(96) %5) #18
  tail call void @_ZdlPv(ptr noundef nonnull %0) #19
  ret void
}